; Function Attrs: mustprogress nounwind uwtable
define dso_local void @_ZN15ExpressionCommaD0Ev(ptr noundef nonnull align 8 dereferenceable(40) initializes((0, 8)) %0) unnamed_addr #7 align 2 {
  store ptr getelementptr inbounds nuw inrange(-16, 176) (i8, ptr @_ZTV15ExpressionComma, i64 16), ptr %0, align 8, !tbaa !4
  %2 = getelementptr inbounds nuw i8, ptr %0, i64 24
  %3 = load ptr, ptr %2, align 8, !tbaa !41
  %4 = icmp eq ptr %3, null
  br i1 %4, label %9, label %5

5:                                                ; preds = %1
  %6 = load ptr, ptr %3, align 8, !tbaa !4
  %7 = getelementptr inbounds nuw i8, ptr %6, i64 8
  %8 = load ptr, ptr %7, align 8
  tail call void %8(ptr noundef nonnull align 8 dereferenceable(24) %3) #16
  br label %9

9:                                                ; preds = %5, %1
  %10 = getelementptr inbounds nuw i8, ptr %0, i64 32
  %11 = load ptr, ptr %10, align 8, !tbaa !43
  %12 = icmp eq ptr %11, null
  br i1 %12, label %_ZN15ExpressionCommaD2Ev.exit, label %13

13:                                               ; preds = %9
  %14 = load ptr, ptr %11, align 8, !tbaa !4
  %15 = getelementptr inbounds nuw i8, ptr %14, i64 8
  %16 = load ptr, ptr %15, align 8
  tail call void %16(ptr noundef nonnull align 8 dereferenceable(24) %11) #16
  br label %_ZN15ExpressionCommaD2Ev.exit

_ZN15ExpressionCommaD2Ev.exit:                    ; preds = %9, %13
  tail call void @_ZN10ExpressionD2Ev(ptr noundef nonnull align 8 dereferenceable(40) %0) #16
  tail call void @_ZdlPvm(ptr noundef nonnull %0, i64 noundef 40) #15
  ret void
}